target datalayout = "e-m:e-p270:32:32-p271:32:32-p272:64:64-i64:64-i128:128-f80:128-n8:16:32:64-S128"
target triple = "x86_64-pc-linux-gnu"

%struct._packet_info = type { ptr, ptr, i32, i32, %struct.nstime_t, %struct.nstime_t, %struct.nstime_t, i8, ptr, ptr, ptr, ptr, %struct._address, %struct._address, %struct._address, %struct._address, %struct._address, %struct._address, i32, ptr, i8, [3 x i8], %struct.anon, i32, i32, i32, i32, ptr, i8, ptr, ptr, i16, i16, i32, i32, i16, i32, i32, ptr, ptr, ptr, i8, i8, i16, i16, i16, i32, i16, i16, ptr, ptr, ptr, ptr, ptr, i32, i32 }
%struct.nstime_t = type { i64, i32 }
%struct._address = type { i32, i32, ptr, ptr }
%struct.anon = type { i8, [3 x i8] }
%struct.conversation = type { ptr, ptr, ptr, i32, i32, i32, ptr, ptr, i32, ptr }
%struct._tftp_conv_info_t = type { i16, ptr, ptr, i32, i8, i8, i16, i16, i32, i8, i32, i8, i32, ptr, i32, i32, i8 }

@proto_tftp = internal global i32 0, align 4
@tftp_handle = internal global ptr null, align 8
@global_tftp_port_range = internal global ptr null, align 8

; Function Attrs: null_pointer_is_valid sspstrong uwtable
define internal ptr @tftp_info_for_conversation(ptr noundef %0) #0 {
  %2 = alloca ptr, align 8
  %3 = alloca ptr, align 8
  store ptr %0, ptr %2, align 8
  call void @llvm.lifetime.start.p0(i64 8, ptr %3) #12
  %4 = load ptr, ptr %2, align 8
  %5 = load i32, ptr @proto_tftp, align 4
  %6 = call ptr @conversation_get_proto_data(ptr noundef %4, i32 noundef %5)
  store ptr %6, ptr %3, align 8
  %7 = load ptr, ptr %3, align 8
  %8 = icmp ne ptr %7, null
  br i1 %8, label %52, label %9

9:                                                ; preds = %1
  %10 = call ptr @wmem_file_scope()
  %11 = call noalias ptr @wmem_alloc(ptr noundef %10, i64 noundef 80) #16
  store ptr %11, ptr %3, align 8
  %12 = load ptr, ptr %3, align 8
  %13 = getelementptr inbounds nuw %struct._tftp_conv_info_t, ptr %12, i32 0, i32 0
  store i16 512, ptr %13, align 8
  %14 = load ptr, ptr %3, align 8
  %15 = getelementptr inbounds nuw %struct._tftp_conv_info_t, ptr %14, i32 0, i32 1
  store ptr null, ptr %15, align 8
  %16 = load ptr, ptr %3, align 8
  %17 = getelementptr inbounds nuw %struct._tftp_conv_info_t, ptr %16, i32 0, i32 2
  store ptr null, ptr %17, align 8
  %18 = load ptr, ptr %3, align 8
  %19 = getelementptr inbounds nuw %struct._tftp_conv_info_t, ptr %18, i32 0, i32 3
  store i32 0, ptr %19, align 8
  %20 = load ptr, ptr %3, align 8
  %21 = getelementptr inbounds nuw %struct._tftp_conv_info_t, ptr %20, i32 0, i32 4
  store i8 0, ptr %21, align 4
  %22 = load ptr, ptr %3, align 8
  %23 = getelementptr inbounds nuw %struct._tftp_conv_info_t, ptr %22, i32 0, i32 5
  store i8 0, ptr %23, align 1
  %24 = load ptr, ptr %3, align 8
  %25 = getelementptr inbounds nuw %struct._tftp_conv_info_t, ptr %24, i32 0, i32 6
  store i16 0, ptr %25, align 2
  %26 = load ptr, ptr %3, align 8
  %27 = getelementptr inbounds nuw %struct._tftp_conv_info_t, ptr %26, i32 0, i32 7
  store i16 -1, ptr %27, align 8
  %28 = load ptr, ptr %3, align 8
  %29 = getelementptr inbounds nuw %struct._tftp_conv_info_t, ptr %28, i32 0, i32 8
  store i32 1, ptr %29, align 4
  %30 = load ptr, ptr %3, align 8
  %31 = getelementptr inbounds nuw %struct._tftp_conv_info_t, ptr %30, i32 0, i32 9
  store i8 0, ptr %31, align 8
  %32 = load ptr, ptr %3, align 8
  %33 = getelementptr inbounds nuw %struct._tftp_conv_info_t, ptr %32, i32 0, i32 10
  store i32 0, ptr %33, align 4
  %34 = load ptr, ptr %3, align 8
  %35 = getelementptr inbounds nuw %struct._tftp_conv_info_t, ptr %34, i32 0, i32 11
  store i8 0, ptr %35, align 8
  %36 = load ptr, ptr %3, align 8
  %37 = getelementptr inbounds nuw %struct._tftp_conv_info_t, ptr %36, i32 0, i32 12
  store i32 1, ptr %37, align 4
  %38 = load ptr, ptr %3, align 8
  %39 = getelementptr inbounds nuw %struct._tftp_conv_info_t, ptr %38, i32 0, i32 13
  store ptr null, ptr %39, align 8
  %40 = load ptr, ptr %2, align 8
  %41 = getelementptr inbounds nuw %struct.conversation, ptr %40, i32 0, i32 3
  %42 = load i32, ptr %41, align 8
  %43 = load ptr, ptr %3, align 8
  %44 = getelementptr inbounds nuw %struct._tftp_conv_info_t, ptr %43, i32 0, i32 14
  store i32 %42, ptr %44, align 8
  %45 = load ptr, ptr %3, align 8
  %46 = getelementptr inbounds nuw %struct._tftp_conv_info_t, ptr %45, i32 0, i32 15
  store i32 -1, ptr %46, align 4
  %47 = load ptr, ptr %3, align 8
  %48 = getelementptr inbounds nuw %struct._tftp_conv_info_t, ptr %47, i32 0, i32 16
  store i8 1, ptr %48, align 8
  %49 = load ptr, ptr %2, align 8
  %50 = load i32, ptr @proto_tftp, align 4
  %51 = load ptr, ptr %3, align 8
  call void @conversation_add_proto_data(ptr noundef %49, i32 noundef %50, ptr noundef %51)
  br label %52

52:                                               ; preds = %9, %1
  %53 = load ptr, ptr %3, align 8
  call void @llvm.lifetime.end.p0(i64 8, ptr %3) #12
  ret ptr %53
}

; Function Attrs: null_pointer_is_valid sspstrong uwtable
define internal zeroext i1 @is_valid_request(ptr noundef %0, ptr noundef %1) #0 {
  %3 = alloca i1, align 1
  %4 = alloca ptr, align 8
  %5 = alloca ptr, align 8
  %6 = alloca i16, align 2
  %7 = alloca i32, align 4
  store ptr %0, ptr %4, align 8
  store ptr %1, ptr %5, align 8
  %8 = load ptr, ptr %4, align 8
  %9 = call i32 @tvb_captured_length(ptr noundef %8)
  %10 = icmp ult i32 %9, 4
  br i1 %10, label %11, label %12

11:                                               ; preds = %2
  store i1 false, ptr %3, align 1
  br label %28

12:                                               ; preds = %2
  call void @llvm.lifetime.start.p0(i64 2, ptr %6) #12
  %13 = load ptr, ptr %4, align 8
  %14 = call zeroext i16 @tvb_get_ntohs(ptr noundef %13, i32 noundef 0)
  store i16 %14, ptr %6, align 2
  %15 = load i16, ptr %6, align 2
  %16 = zext i16 %15 to i32
  %17 = icmp ne i32 %16, 1
  br i1 %17, label %18, label %23

18:                                               ; preds = %12
  %19 = load i16, ptr %6, align 2
  %20 = zext i16 %19 to i32
  %21 = icmp ne i32 %20, 2
  br i1 %21, label %22, label %23

22:                                               ; preds = %18
  store i1 false, ptr %3, align 1
  store i32 1, ptr %7, align 4
  br label %27

23:                                               ; preds = %18, %12
  %24 = load ptr, ptr %4, align 8
  %25 = load ptr, ptr %5, align 8
  %26 = call zeroext i1 @is_valid_request_body(ptr noundef %24, ptr noundef %25)
  store i1 %26, ptr %3, align 1
  store i32 1, ptr %7, align 4
  br label %27

27:                                               ; preds = %23, %22
  call void @llvm.lifetime.end.p0(i64 2, ptr %6) #12
  br label %28

28:                                               ; preds = %27, %11
  %29 = load i1, ptr %3, align 1
  ret i1 %29
}

; Function Attrs: null_pointer_is_valid sspstrong uwtable
define internal i32 @dissect_tftp(ptr noundef %0, ptr noundef %1, ptr noundef %2, ptr noundef %3) #0 {
  %5 = alloca i32, align 4
  %6 = alloca ptr, align 8
  %7 = alloca ptr, align 8
  %8 = alloca ptr, align 8
  %9 = alloca ptr, align 8
  %10 = alloca ptr, align 8
  %11 = alloca i32, align 4
  store ptr %0, ptr %6, align 8
  store ptr %1, ptr %7, align 8
  store ptr %2, ptr %8, align 8
  store ptr %3, ptr %9, align 8
  call void @llvm.lifetime.start.p0(i64 8, ptr %10) #12
  store ptr null, ptr %10, align 8
  %12 = load ptr, ptr @global_tftp_port_range, align 8
  %13 = load ptr, ptr %7, align 8
  %14 = getelementptr inbounds nuw %struct._packet_info, ptr %13, i32 0, i32 25
  %15 = load i32, ptr %14, align 8
  %16 = call zeroext i1 @value_is_in_range(ptr noundef %12, i32 noundef %15)
  br i1 %16, label %25, label %17

17:                                               ; preds = %4
  %18 = load ptr, ptr %7, align 8
  %19 = getelementptr inbounds nuw %struct._packet_info, ptr %18, i32 0, i32 26
  %20 = load i32, ptr %19, align 4
  %21 = load ptr, ptr %7, align 8
  %22 = getelementptr inbounds nuw %struct._packet_info, ptr %21, i32 0, i32 25
  %23 = load i32, ptr %22, align 8
  %24 = icmp eq i32 %20, %23
  br i1 %24, label %25, label %32

25:                                               ; preds = %17, %4
  %26 = load ptr, ptr %6, align 8
  %27 = load ptr, ptr %7, align 8
  %28 = call zeroext i1 @is_valid_request(ptr noundef %26, ptr noundef %27)
  br i1 %28, label %29, label %32

29:                                               ; preds = %25
  %30 = load ptr, ptr %7, align 8
  %31 = call ptr @create_tftp_conversation(ptr noundef %30)
  store ptr %31, ptr %10, align 8
  br label %32

32:                                               ; preds = %29, %25, %17
  %33 = load ptr, ptr %10, align 8
  %34 = icmp eq ptr %33, null
  br i1 %34, label %35, label %88

35:                                               ; preds = %32
  %36 = load ptr, ptr %7, align 8
  %37 = getelementptr inbounds nuw %struct._packet_info, ptr %36, i32 0, i32 3
  %38 = load i32, ptr %37, align 4
  %39 = load ptr, ptr %7, align 8
  %40 = getelementptr inbounds nuw %struct._packet_info, ptr %39, i32 0, i32 17
  %41 = load ptr, ptr %7, align 8
  %42 = getelementptr inbounds nuw %struct._packet_info, ptr %41, i32 0, i32 16
  %43 = load ptr, ptr %7, align 8
  %44 = getelementptr inbounds nuw %struct._packet_info, ptr %43, i32 0, i32 25
  %45 = load i32, ptr %44, align 8
  %46 = call ptr @find_conversation(i32 noundef %38, ptr noundef %40, ptr noundef %42, i32 noundef 3, i32 noundef %45, i32 noundef 0, i32 noundef 131072)
  store ptr %46, ptr %10, align 8
  %47 = icmp ne ptr %46, null
  br i1 %47, label %48, label %57

48:                                               ; preds = %35
  %49 = load ptr, ptr %10, align 8
  %50 = load ptr, ptr %7, align 8
  %51 = getelementptr inbounds nuw %struct._packet_info, ptr %50, i32 0, i32 3
  %52 = load i32, ptr %51, align 4
  %53 = call ptr @conversation_get_dissector(ptr noundef %49, i32 noundef %52)
  %54 = load ptr, ptr @tftp_handle, align 8
  %55 = icmp eq ptr %53, %54
  br i1 %55, label %56, label %57

56:                                               ; preds = %48
  br label %87

57:                                               ; preds = %48, %35
  %58 = load ptr, ptr %7, align 8
  %59 = getelementptr inbounds nuw %struct._packet_info, ptr %58, i32 0, i32 3
  %60 = load i32, ptr %59, align 4
  %61 = load ptr, ptr %7, align 8
  %62 = getelementptr inbounds nuw %struct._packet_info, ptr %61, i32 0, i32 16
  %63 = load ptr, ptr %7, align 8
  %64 = getelementptr inbounds nuw %struct._packet_info, ptr %63, i32 0, i32 17
  %65 = load ptr, ptr %7, align 8
  %66 = getelementptr inbounds nuw %struct._packet_info, ptr %65, i32 0, i32 24
  %67 = load i32, ptr %66, align 4
  %68 = call ptr @find_conversation(i32 noundef %60, ptr noundef %62, ptr noundef %64, i32 noundef 3, i32 noundef %67, i32 noundef 0, i32 noundef 131072)
  store ptr %68, ptr %10, align 8
  %69 = icmp ne ptr %68, null
  br i1 %69, label %70, label %79

70:                                               ; preds = %57
  %71 = load ptr, ptr %10, align 8
  %72 = load ptr, ptr %7, align 8
  %73 = getelementptr inbounds nuw %struct._packet_info, ptr %72, i32 0, i32 3
  %74 = load i32, ptr %73, align 4
  %75 = call ptr @conversation_get_dissector(ptr noundef %71, i32 noundef %74)
  %76 = load ptr, ptr @tftp_handle, align 8
  %77 = icmp eq ptr %75, %76
  br i1 %77, label %78, label %79

78:                                               ; preds = %70
  br label %86

79:                                               ; preds = %70, %57
  %80 = load ptr, ptr %7, align 8
  %81 = call ptr @find_conversation_pinfo(ptr noundef %80, i32 noundef 0)
  store ptr %81, ptr %10, align 8
  %82 = load ptr, ptr %10, align 8
  %83 = icmp eq ptr %82, null
  br i1 %83, label %84, label %85

84:                                               ; preds = %79
  store i32 0, ptr %5, align 4
  store i32 1, ptr %11, align 4
  br label %110

85:                                               ; preds = %79
  br label %86

86:                                               ; preds = %85, %78
  br label %87

87:                                               ; preds = %86, %56
  br label %88

88:                                               ; preds = %87, %32
  %89 = load ptr, ptr %7, align 8
  %90 = getelementptr inbounds nuw %struct._packet_info, ptr %89, i32 0, i32 3
  %91 = load i32, ptr %90, align 4
  %92 = load ptr, ptr %10, align 8
  %93 = getelementptr inbounds nuw %struct.conversation, ptr %92, i32 0, i32 5
  %94 = load i32, ptr %93, align 8
  %95 = icmp ugt i32 %91, %94
  br i1 %95, label %96, label %102

96:                                               ; preds = %88
  %97 = load ptr, ptr %7, align 8
  %98 = getelementptr inbounds nuw %struct._packet_info, ptr %97, i32 0, i32 3
  %99 = load i32, ptr %98, align 4
  %100 = load ptr, ptr %10, align 8
  %101 = getelementptr inbounds nuw %struct.conversation, ptr %100, i32 0, i32 5
  store i32 %99, ptr %101, align 8
  br label %102

102:                                              ; preds = %96, %88
  %103 = load ptr, ptr %10, align 8
  %104 = call ptr @tftp_info_for_conversation(ptr noundef %103)
  %105 = load ptr, ptr %6, align 8
  %106 = load ptr, ptr %7, align 8
  %107 = load ptr, ptr %8, align 8
  call void @dissect_tftp_message(ptr noundef %104, ptr noundef %105, ptr noundef %106, ptr noundef %107)
  %108 = load ptr, ptr %6, align 8
  %109 = call i32 @tvb_captured_length(ptr noundef %108)
  store i32 %109, ptr %5, align 4
  store i32 1, ptr %11, align 4
  br label %110

110:                                              ; preds = %102, %84
  call void @llvm.lifetime.end.p0(i64 8, ptr %10) #12
  %111 = load i32, ptr %5, align 4
  ret i32 %111
}