; Function Attrs: null_pointer_is_valid sspstrong uwtable
define internal i32 @dissect_tftp(ptr noundef %0, ptr noundef %1, ptr noundef %2, ptr readnone captures(none) %3) #0 {
  %5 = load ptr, ptr @global_tftp_port_range, align 8
  %6 = getelementptr inbounds nuw i8, ptr %1, i64 288
  %7 = load i32, ptr %6, align 8
  %8 = tail call zeroext i1 @value_is_in_range(ptr noundef %5, i32 noundef %7)
  br i1 %8, label %14, label %9

9:                                                ; preds = %4
  %10 = getelementptr inbounds nuw i8, ptr %1, i64 292
  %11 = load i32, ptr %10, align 4
  %12 = load i32, ptr %6, align 8
  %13 = icmp eq i32 %11, %12
  br i1 %13, label %14, label %.thread

14:                                               ; preds = %9, %4
  %15 = tail call i32 @tvb_captured_length(ptr noundef %0)
  %16 = icmp ult i32 %15, 4
  br i1 %16, label %.thread, label %17

17:                                               ; preds = %14
  %18 = tail call zeroext i16 @tvb_get_ntohs(ptr noundef %0, i32 noundef 0)
  %19 = add i16 %18, -3
  %or.cond.i = icmp ult i16 %19, -2
  br i1 %or.cond.i, label %.thread, label %is_valid_request.exit

is_valid_request.exit:                            ; preds = %17
  %20 = tail call fastcc zeroext i1 @is_valid_request_body(ptr noundef %0, ptr noundef readonly %1)
  br i1 %20, label %21, label %.thread

21:                                               ; preds = %is_valid_request.exit
  %22 = tail call fastcc ptr @create_tftp_conversation(ptr noundef %1)
  %23 = icmp eq ptr %22, null
  br i1 %23, label %.thread, label %48

.thread:                                          ; preds = %17, %14, %9, %is_valid_request.exit, %21
  %24 = getelementptr inbounds nuw i8, ptr %1, i64 20
  %25 = load i32, ptr %24, align 4
  %26 = getelementptr inbounds nuw i8, ptr %1, i64 232
  %27 = getelementptr inbounds nuw i8, ptr %1, i64 208
  %28 = load i32, ptr %6, align 8
  %29 = tail call ptr @find_conversation(i32 noundef %25, ptr noundef nonnull %26, ptr noundef nonnull %27, i32 noundef 3, i32 noundef %28, i32 noundef 0, i32 noundef 131072)
  %.not = icmp eq ptr %29, null
  br i1 %.not, label %35, label %30

30:                                               ; preds = %.thread
  %31 = load i32, ptr %24, align 4
  %32 = tail call ptr @conversation_get_dissector(ptr noundef nonnull %29, i32 noundef %31)
  %33 = load ptr, ptr @tftp_handle, align 8
  %34 = icmp eq ptr %32, %33
  br i1 %34, label %48, label %35

35:                                               ; preds = %30, %.thread
  %36 = load i32, ptr %24, align 4
  %37 = getelementptr inbounds nuw i8, ptr %1, i64 284
  %38 = load i32, ptr %37, align 4
  %39 = tail call ptr @find_conversation(i32 noundef %36, ptr noundef nonnull %27, ptr noundef nonnull %26, i32 noundef 3, i32 noundef %38, i32 noundef 0, i32 noundef 131072)
  %.not35 = icmp eq ptr %39, null
  br i1 %.not35, label %45, label %40

40:                                               ; preds = %35
  %41 = load i32, ptr %24, align 4
  %42 = tail call ptr @conversation_get_dissector(ptr noundef nonnull %39, i32 noundef %41)
  %43 = load ptr, ptr @tftp_handle, align 8
  %44 = icmp eq ptr %42, %43
  br i1 %44, label %48, label %45

45:                                               ; preds = %40, %35
  %46 = tail call ptr @find_conversation_pinfo(ptr noundef %1, i32 noundef 0)
  %47 = icmp eq ptr %46, null
  br i1 %47, label %76, label %48

48:                                               ; preds = %30, %45, %40, %21
  %.1 = phi ptr [ %29, %30 ], [ %39, %40 ], [ %46, %45 ], [ %22, %21 ]
  %49 = getelementptr inbounds nuw i8, ptr %1, i64 20
  %50 = load i32, ptr %49, align 4
  %51 = getelementptr inbounds nuw i8, ptr %.1, i64 32
  %52 = load i32, ptr %51, align 8
  %53 = icmp ugt i32 %50, %52
  br i1 %53, label %54, label %55

54:                                               ; preds = %48
  store i32 %50, ptr %51, align 8
  br label %55

55:                                               ; preds = %54, %48
  %56 = load i32, ptr @proto_tftp, align 4
  %57 = tail call ptr @conversation_get_proto_data(ptr noundef nonnull %.1, i32 noundef %56)
  %.not.i = icmp eq ptr %57, null
  br i1 %.not.i, label %58, label %tftp_info_for_conversation.exit

58:                                               ; preds = %55
  %59 = tail call ptr @wmem_file_scope()
  %60 = tail call noalias dereferenceable_or_null(80) ptr @wmem_alloc(ptr noundef %59, i64 noundef 80) #8
  store i16 512, ptr %60, align 8
  %61 = getelementptr inbounds nuw i8, ptr %60, i64 8
  %62 = getelementptr inbounds nuw i8, ptr %60, i64 32
  tail call void @llvm.memset.p0.i64(ptr noundef nonnull align 8 dereferenceable(24) %61, i8 0, i64 24, i1 false)
  store i16 -1, ptr %62, align 8
  %63 = getelementptr inbounds nuw i8, ptr %60, i64 36
  store i32 1, ptr %63, align 4
  %64 = getelementptr inbounds nuw i8, ptr %60, i64 40
  store i8 0, ptr %64, align 8
  %65 = getelementptr inbounds nuw i8, ptr %60, i64 44
  store i32 0, ptr %65, align 4
  %66 = getelementptr inbounds nuw i8, ptr %60, i64 48
  store i8 0, ptr %66, align 8
  %67 = getelementptr inbounds nuw i8, ptr %60, i64 52
  store i32 1, ptr %67, align 4
  %68 = getelementptr inbounds nuw i8, ptr %60, i64 56
  store ptr null, ptr %68, align 8
  %69 = getelementptr inbounds nuw i8, ptr %.1, i64 24
  %70 = load i32, ptr %69, align 8
  %71 = getelementptr inbounds nuw i8, ptr %60, i64 64
  store i32 %70, ptr %71, align 8
  %72 = getelementptr inbounds nuw i8, ptr %60, i64 68
  store i32 -1, ptr %72, align 4
  %73 = getelementptr inbounds nuw i8, ptr %60, i64 72
  store i8 1, ptr %73, align 8
  %74 = load i32, ptr @proto_tftp, align 4
  tail call void @conversation_add_proto_data(ptr noundef nonnull %.1, i32 noundef %74, ptr noundef %60)
  br label %tftp_info_for_conversation.exit

tftp_info_for_conversation.exit:                  ; preds = %55, %58
  %.0.i36 = phi ptr [ %57, %55 ], [ %60, %58 ]
  tail call fastcc void @dissect_tftp_message(ptr noundef %.0.i36, ptr noundef %0, ptr noundef %1, ptr noundef %2)
  %75 = tail call i32 @tvb_captured_length(ptr noundef %0)
  br label %76

76:                                               ; preds = %45, %tftp_info_for_conversation.exit
  %.030 = phi i32 [ %75, %tftp_info_for_conversation.exit ], [ 0, %45 ]
  ret i32 %.030
}